; Function Attrs: mustprogress nofree norecurse nosync nounwind memory(read, argmem: readwrite, inaccessiblemem: none) uwtable
define hidden void @_ZN11OpenImageIO6v3_1_09TIFFInput14palette_to_rgbEiPKtPh(ptr noundef nonnull readonly align 8 captures(none) dereferenceable(384) %0, i32 noundef %1, ptr noundef readonly captures(none) %2, ptr noundef writeonly captures(none) %3) local_unnamed_addr #19 align 2 {
  %5 = getelementptr inbounds nuw i8, ptr %0, i64 298
  %6 = load i16, ptr %5, align 2, !tbaa !149
  %7 = zext nneg i16 %6 to i32
  %8 = shl nuw i32 1, %7
  %9 = sext i32 %8 to i64
  %10 = icmp sgt i32 %1, 0
  br i1 %10, label %.lr.ph, label %._crit_edge

.lr.ph:                                           ; preds = %4
  %11 = getelementptr inbounds nuw i8, ptr %0, i64 312
  %.idx = shl nsw i64 %9, 2
  %wide.trip.count = zext nneg i32 %1 to i64
  br label %12

._crit_edge:                                      ; preds = %12, %4
  ret void

12:                                               ; preds = %.lr.ph, %12
  %indvars.iv = phi i64 [ 0, %.lr.ph ], [ %indvars.iv.next, %12 ]
  %.016 = phi ptr [ %3, %.lr.ph ], [ %35, %12 ]
  %13 = getelementptr inbounds nuw i16, ptr %2, i64 %indvars.iv
  %14 = load i16, ptr %13, align 2, !tbaa !95
  %15 = zext i16 %14 to i64
  %16 = load ptr, ptr %11, align 8, !tbaa !80
  %17 = getelementptr inbounds nuw i16, ptr %16, i64 %15
  %18 = load i16, ptr %17, align 2, !tbaa !95
  %19 = udiv i16 %18, 257
  %20 = trunc nuw i16 %19 to i8
  %21 = getelementptr inbounds nuw i8, ptr %.016, i64 1
  store i8 %20, ptr %.016, align 1, !tbaa !13
  %22 = load ptr, ptr %11, align 8, !tbaa !80
  %23 = getelementptr i16, ptr %22, i64 %9
  %24 = getelementptr i16, ptr %23, i64 %15
  %25 = load i16, ptr %24, align 2, !tbaa !95
  %26 = udiv i16 %25, 257
  %27 = trunc nuw i16 %26 to i8
  %28 = getelementptr inbounds nuw i8, ptr %.016, i64 2
  store i8 %27, ptr %21, align 1, !tbaa !13
  %29 = load ptr, ptr %11, align 8, !tbaa !80
  %30 = getelementptr i8, ptr %29, i64 %.idx
  %31 = getelementptr i16, ptr %30, i64 %15
  %32 = load i16, ptr %31, align 2, !tbaa !95
  %33 = udiv i16 %32, 257
  %34 = trunc nuw i16 %33 to i8
  %35 = getelementptr inbounds nuw i8, ptr %.016, i64 3
  store i8 %34, ptr %28, align 1, !tbaa !13
  %indvars.iv.next = add nuw nsw i64 %indvars.iv, 1
  %exitcond.not = icmp eq i64 %indvars.iv.next, %wide.trip.count
  br i1 %exitcond.not, label %._crit_edge, label %12, !llvm.loop !225
}